target datalayout = "e-m:e-p270:32:32-p271:32:32-p272:64:64-i64:64-i128:128-f80:128-n8:16:32:64-S128"
target triple = "x86_64-pc-linux-gnu"

%struct.Ver_Man_t_ = type { i32, i32, i32, ptr, ptr, i32, ptr, ptr, ptr, ptr, i32, i32, [2000 x i8], ptr, ptr, ptr, ptr }
%struct.Abc_Des_t_ = type { ptr, ptr, ptr, ptr, ptr, ptr, ptr }
%struct.Abc_Ntk_t_ = type { i32, i32, ptr, ptr, ptr, ptr, ptr, ptr, ptr, ptr, ptr, ptr, ptr, [11 x i32], i32, i32, i32, i32, ptr, i32, ptr, ptr, i32, i32, i32, double, i32, %struct.Vec_Int_t_, ptr, ptr, ptr, ptr, ptr, float, i32, ptr, ptr, ptr, ptr, ptr, ptr, ptr, ptr, ptr, ptr, ptr, ptr, ptr, ptr, ptr, ptr, ptr, ptr, ptr, ptr, ptr, ptr }
%struct.Vec_Int_t_ = type { i32, i32, ptr }
%struct.Vec_Ptr_t_ = type { i32, i32, ptr }
%struct.Abc_Obj_t_ = type { ptr, ptr, i32, i32, %struct.Vec_Int_t_, %struct.Vec_Int_t_, %union.anon, %union.anon.0 }
%union.anon = type { ptr }
%union.anon.0 = type { ptr }

@.str.11 = private unnamed_addr constant [83 x i8] c"Warning: The design contains %d undefined object types interpreted as blackboxes:\0A\00", align 1
@.str.12 = private unnamed_addr constant [10 x i8] c"%s (%d)  \00", align 1
@.str.13 = private unnamed_addr constant [2 x i8] c"\0A\00", align 1

; Function Attrs: inlinehint nounwind uwtable
define internal i32 @Abc_NtkPoNum(ptr noundef %0) #6 {
  %2 = alloca ptr, align 8
  store ptr %0, ptr %2, align 8, !tbaa !39
  %3 = load ptr, ptr %2, align 8, !tbaa !39
  %4 = getelementptr inbounds nuw %struct.Abc_Ntk_t_, ptr %3, i32 0, i32 7
  %5 = load ptr, ptr %4, align 8, !tbaa !164
  %6 = call i32 @Vec_PtrSize(ptr noundef %5)
  ret i32 %6
}

; Function Attrs: inlinehint nounwind uwtable
define internal i32 @Abc_NtkPiNum(ptr noundef %0) #6 {
  %2 = alloca ptr, align 8
  store ptr %0, ptr %2, align 8, !tbaa !39
  %3 = load ptr, ptr %2, align 8, !tbaa !39
  %4 = getelementptr inbounds nuw %struct.Abc_Ntk_t_, ptr %3, i32 0, i32 6
  %5 = load ptr, ptr %4, align 8, !tbaa !163
  %6 = call i32 @Vec_PtrSize(ptr noundef %5)
  ret i32 %6
}

; Function Attrs: inlinehint nounwind uwtable
define internal ptr @Abc_NtkName(ptr noundef %0) #6 {
  %2 = alloca ptr, align 8
  store ptr %0, ptr %2, align 8, !tbaa !39
  %3 = load ptr, ptr %2, align 8, !tbaa !39
  %4 = getelementptr inbounds nuw %struct.Abc_Ntk_t_, ptr %3, i32 0, i32 2
  %5 = load ptr, ptr %4, align 8, !tbaa !42
  ret ptr %5
}

; Function Attrs: inlinehint nounwind uwtable
define internal i32 @Abc_ObjIsBlackbox(ptr noundef %0) #6 {
  %2 = alloca ptr, align 8
  store ptr %0, ptr %2, align 8, !tbaa !58
  %3 = load ptr, ptr %2, align 8, !tbaa !58
  %4 = getelementptr inbounds nuw %struct.Abc_Obj_t_, ptr %3, i32 0, i32 3
  %5 = load i32, ptr %4, align 4
  %6 = and i32 %5, 15
  %7 = icmp eq i32 %6, 10
  %8 = zext i1 %7 to i32
  ret i32 %8
}

; Function Attrs: inlinehint nounwind uwtable
define internal ptr @Abc_NtkBox(ptr noundef %0, i32 noundef %1) #6 {
  %3 = alloca ptr, align 8
  %4 = alloca i32, align 4
  store ptr %0, ptr %3, align 8, !tbaa !39
  store i32 %1, ptr %4, align 4, !tbaa !10
  %5 = load ptr, ptr %3, align 8, !tbaa !39
  %6 = getelementptr inbounds nuw %struct.Abc_Ntk_t_, ptr %5, i32 0, i32 11
  %7 = load ptr, ptr %6, align 8, !tbaa !90
  %8 = load i32, ptr %4, align 4, !tbaa !10
  %9 = call ptr @Vec_PtrEntry(ptr noundef %7, i32 noundef %8)
  ret ptr %9
}

; Function Attrs: inlinehint nounwind uwtable
define internal i32 @Ver_NtkIsDefined(ptr noundef %0) #6 {
  %2 = alloca ptr, align 8
  store ptr %0, ptr %2, align 8, !tbaa !39
  %3 = load ptr, ptr %2, align 8, !tbaa !39
  %4 = call i32 @Abc_NtkPiNum(ptr noundef %3)
  %5 = icmp ne i32 %4, 0
  br i1 %5, label %10, label %6

6:                                                ; preds = %1
  %7 = load ptr, ptr %2, align 8, !tbaa !39
  %8 = call i32 @Abc_NtkPoNum(ptr noundef %7)
  %9 = icmp ne i32 %8, 0
  br label %10

10:                                               ; preds = %6, %1
  %11 = phi i1 [ true, %1 ], [ %9, %6 ]
  %12 = zext i1 %11 to i32
  ret i32 %12
}

; Function Attrs: inlinehint nounwind uwtable
define internal ptr @Vec_PtrEntry(ptr noundef %0, i32 noundef %1) #6 {
  %3 = alloca ptr, align 8
  %4 = alloca i32, align 4
  store ptr %0, ptr %3, align 8, !tbaa !74
  store i32 %1, ptr %4, align 4, !tbaa !10
  %5 = load ptr, ptr %3, align 8, !tbaa !74
  %6 = getelementptr inbounds nuw %struct.Vec_Ptr_t_, ptr %5, i32 0, i32 2
  %7 = load ptr, ptr %6, align 8, !tbaa !79
  %8 = load i32, ptr %4, align 4, !tbaa !10
  %9 = sext i32 %8 to i64
  %10 = getelementptr inbounds ptr, ptr %7, i64 %9
  %11 = load ptr, ptr %10, align 8, !tbaa !77
  ret ptr %11
}

; Function Attrs: inlinehint nounwind uwtable
define internal i32 @Vec_PtrSize(ptr noundef %0) #6 {
  %2 = alloca ptr, align 8
  store ptr %0, ptr %2, align 8, !tbaa !74
  %3 = load ptr, ptr %2, align 8, !tbaa !74
  %4 = getelementptr inbounds nuw %struct.Vec_Ptr_t_, ptr %3, i32 0, i32 1
  %5 = load i32, ptr %4, align 4, !tbaa !75
  ret i32 %5
}

; Function Attrs: nounwind uwtable
define void @Ver_ParseReportUndefBoxes(ptr noundef %0) #0 {
  %2 = alloca ptr, align 8
  %3 = alloca ptr, align 8
  %4 = alloca ptr, align 8
  %5 = alloca i32, align 4
  %6 = alloca i32, align 4
  %7 = alloca i32, align 4
  store ptr %0, ptr %2, align 8, !tbaa !12
  call void @llvm.lifetime.start.p0(i64 8, ptr %3) #10
  call void @llvm.lifetime.start.p0(i64 8, ptr %4) #10
  call void @llvm.lifetime.start.p0(i64 4, ptr %5) #10
  call void @llvm.lifetime.start.p0(i64 4, ptr %6) #10
  call void @llvm.lifetime.start.p0(i64 4, ptr %7) #10
  store i32 0, ptr %7, align 4, !tbaa !10
  store i32 0, ptr %5, align 4, !tbaa !10
  br label %8

8:                                                ; preds = %37, %1
  %9 = load i32, ptr %5, align 4, !tbaa !10
  %10 = load ptr, ptr %2, align 8, !tbaa !12
  %11 = getelementptr inbounds nuw %struct.Ver_Man_t_, ptr %10, i32 0, i32 7
  %12 = load ptr, ptr %11, align 8, !tbaa !24
  %13 = getelementptr inbounds nuw %struct.Abc_Des_t_, ptr %12, i32 0, i32 3
  %14 = load ptr, ptr %13, align 8, !tbaa !38
  %15 = call i32 @Vec_PtrSize(ptr noundef %14)
  %16 = icmp slt i32 %9, %15
  br i1 %16, label %17, label %25

17:                                               ; preds = %8
  %18 = load ptr, ptr %2, align 8, !tbaa !12
  %19 = getelementptr inbounds nuw %struct.Ver_Man_t_, ptr %18, i32 0, i32 7
  %20 = load ptr, ptr %19, align 8, !tbaa !24
  %21 = getelementptr inbounds nuw %struct.Abc_Des_t_, ptr %20, i32 0, i32 3
  %22 = load ptr, ptr %21, align 8, !tbaa !38
  %23 = load i32, ptr %5, align 4, !tbaa !10
  %24 = call ptr @Vec_PtrEntry(ptr noundef %22, i32 noundef %23)
  store ptr %24, ptr %3, align 8, !tbaa !39
  br label %25

25:                                               ; preds = %17, %8
  %26 = phi i1 [ false, %8 ], [ true, %17 ]
  br i1 %26, label %27, label %40

27:                                               ; preds = %25
  %28 = load ptr, ptr %3, align 8, !tbaa !39
  %29 = getelementptr inbounds nuw %struct.Abc_Ntk_t_, ptr %28, i32 0, i32 23
  store i32 0, ptr %29, align 4, !tbaa !120
  %30 = load ptr, ptr %3, align 8, !tbaa !39
  %31 = call i32 @Ver_NtkIsDefined(ptr noundef %30)
  %32 = icmp ne i32 %31, 0
  br i1 %32, label %36, label %33

33:                                               ; preds = %27
  %34 = load i32, ptr %7, align 4, !tbaa !10
  %35 = add nsw i32 %34, 1
  store i32 %35, ptr %7, align 4, !tbaa !10
  br label %36

36:                                               ; preds = %33, %27
  br label %37

37:                                               ; preds = %36
  %38 = load i32, ptr %5, align 4, !tbaa !10
  %39 = add nsw i32 %38, 1
  store i32 %39, ptr %5, align 4, !tbaa !10
  br label %8, !llvm.loop !121

40:                                               ; preds = %25
  store i32 0, ptr %5, align 4, !tbaa !10
  br label %41

41:                                               ; preds = %103, %40
  %42 = load i32, ptr %5, align 4, !tbaa !10
  %43 = load ptr, ptr %2, align 8, !tbaa !12
  %44 = getelementptr inbounds nuw %struct.Ver_Man_t_, ptr %43, i32 0, i32 7
  %45 = load ptr, ptr %44, align 8, !tbaa !24
  %46 = getelementptr inbounds nuw %struct.Abc_Des_t_, ptr %45, i32 0, i32 3
  %47 = load ptr, ptr %46, align 8, !tbaa !38
  %48 = call i32 @Vec_PtrSize(ptr noundef %47)
  %49 = icmp slt i32 %42, %48
  br i1 %49, label %50, label %58

50:                                               ; preds = %41
  %51 = load ptr, ptr %2, align 8, !tbaa !12
  %52 = getelementptr inbounds nuw %struct.Ver_Man_t_, ptr %51, i32 0, i32 7
  %53 = load ptr, ptr %52, align 8, !tbaa !24
  %54 = getelementptr inbounds nuw %struct.Abc_Des_t_, ptr %53, i32 0, i32 3
  %55 = load ptr, ptr %54, align 8, !tbaa !38
  %56 = load i32, ptr %5, align 4, !tbaa !10
  %57 = call ptr @Vec_PtrEntry(ptr noundef %55, i32 noundef %56)
  store ptr %57, ptr %3, align 8, !tbaa !39
  br label %58

58:                                               ; preds = %50, %41
  %59 = phi i1 [ false, %41 ], [ true, %50 ]
  br i1 %59, label %60, label %106

60:                                               ; preds = %58
  store i32 0, ptr %6, align 4, !tbaa !10
  br label %61

61:                                               ; preds = %99, %60
  %62 = load i32, ptr %6, align 4, !tbaa !10
  %63 = load ptr, ptr %3, align 8, !tbaa !39
  %64 = getelementptr inbounds nuw %struct.Abc_Ntk_t_, ptr %63, i32 0, i32 11
  %65 = load ptr, ptr %64, align 8, !tbaa !90
  %66 = call i32 @Vec_PtrSize(ptr noundef %65)
  %67 = icmp slt i32 %62, %66
  br i1 %67, label %68, label %72

68:                                               ; preds = %61
  %69 = load ptr, ptr %3, align 8, !tbaa !39
  %70 = load i32, ptr %6, align 4, !tbaa !10
  %71 = call ptr @Abc_NtkBox(ptr noundef %69, i32 noundef %70)
  store ptr %71, ptr %4, align 8, !tbaa !58
  br label %72

72:                                               ; preds = %68, %61
  %73 = phi i1 [ false, %61 ], [ true, %68 ]
  br i1 %73, label %74, label %102

74:                                               ; preds = %72
  %75 = load ptr, ptr %4, align 8, !tbaa !58
  %76 = call i32 @Abc_ObjIsBlackbox(ptr noundef %75)
  %77 = icmp ne i32 %76, 0
  br i1 %77, label %79, label %78

78:                                               ; preds = %74
  br label %98

79:                                               ; preds = %74
  %80 = load ptr, ptr %4, align 8, !tbaa !58
  %81 = getelementptr inbounds nuw %struct.Abc_Obj_t_, ptr %80, i32 0, i32 6
  %82 = load ptr, ptr %81, align 8, !tbaa !66
  %83 = icmp ne ptr %82, null
  br i1 %83, label %84, label %97

84:                                               ; preds = %79
  %85 = load ptr, ptr %4, align 8, !tbaa !58
  %86 = getelementptr inbounds nuw %struct.Abc_Obj_t_, ptr %85, i32 0, i32 6
  %87 = load ptr, ptr %86, align 8, !tbaa !66
  %88 = call i32 @Ver_NtkIsDefined(ptr noundef %87)
  %89 = icmp ne i32 %88, 0
  br i1 %89, label %97, label %90

90:                                               ; preds = %84
  %91 = load ptr, ptr %4, align 8, !tbaa !58
  %92 = getelementptr inbounds nuw %struct.Abc_Obj_t_, ptr %91, i32 0, i32 6
  %93 = load ptr, ptr %92, align 8, !tbaa !66
  %94 = getelementptr inbounds nuw %struct.Abc_Ntk_t_, ptr %93, i32 0, i32 23
  %95 = load i32, ptr %94, align 4, !tbaa !120
  %96 = add nsw i32 %95, 1
  store i32 %96, ptr %94, align 4, !tbaa !120
  br label %97

97:                                               ; preds = %90, %84, %79
  br label %98

98:                                               ; preds = %97, %78
  br label %99

99:                                               ; preds = %98
  %100 = load i32, ptr %6, align 4, !tbaa !10
  %101 = add nsw i32 %100, 1
  store i32 %101, ptr %6, align 4, !tbaa !10
  br label %61, !llvm.loop !122

102:                                              ; preds = %72
  br label %103

103:                                              ; preds = %102
  %104 = load i32, ptr %5, align 4, !tbaa !10
  %105 = add nsw i32 %104, 1
  store i32 %105, ptr %5, align 4, !tbaa !10
  br label %41, !llvm.loop !123

106:                                              ; preds = %58
  %107 = load i32, ptr %7, align 4, !tbaa !10
  %108 = call i32 (ptr, ...) @printf(ptr noundef @.str.11, i32 noundef %107)
  store i32 0, ptr %5, align 4, !tbaa !10
  br label %109

109:                                              ; preds = %140, %106
  %110 = load i32, ptr %5, align 4, !tbaa !10
  %111 = load ptr, ptr %2, align 8, !tbaa !12
  %112 = getelementptr inbounds nuw %struct.Ver_Man_t_, ptr %111, i32 0, i32 7
  %113 = load ptr, ptr %112, align 8, !tbaa !24
  %114 = getelementptr inbounds nuw %struct.Abc_Des_t_, ptr %113, i32 0, i32 3
  %115 = load ptr, ptr %114, align 8, !tbaa !38
  %116 = call i32 @Vec_PtrSize(ptr noundef %115)
  %117 = icmp slt i32 %110, %116
  br i1 %117, label %118, label %126

118:                                              ; preds = %109
  %119 = load ptr, ptr %2, align 8, !tbaa !12
  %120 = getelementptr inbounds nuw %struct.Ver_Man_t_, ptr %119, i32 0, i32 7
  %121 = load ptr, ptr %120, align 8, !tbaa !24
  %122 = getelementptr inbounds nuw %struct.Abc_Des_t_, ptr %121, i32 0, i32 3
  %123 = load ptr, ptr %122, align 8, !tbaa !38
  %124 = load i32, ptr %5, align 4, !tbaa !10
  %125 = call ptr @Vec_PtrEntry(ptr noundef %123, i32 noundef %124)
  store ptr %125, ptr %3, align 8, !tbaa !39
  br label %126

126:                                              ; preds = %118, %109
  %127 = phi i1 [ false, %109 ], [ true, %118 ]
  br i1 %127, label %128, label %143

128:                                              ; preds = %126
  %129 = load ptr, ptr %3, align 8, !tbaa !39
  %130 = call i32 @Ver_NtkIsDefined(ptr noundef %129)
  %131 = icmp ne i32 %130, 0
  br i1 %131, label %139, label %132

132:                                              ; preds = %128
  %133 = load ptr, ptr %3, align 8, !tbaa !39
  %134 = call ptr @Abc_NtkName(ptr noundef %133)
  %135 = load ptr, ptr %3, align 8, !tbaa !39
  %136 = getelementptr inbounds nuw %struct.Abc_Ntk_t_, ptr %135, i32 0, i32 23
  %137 = load i32, ptr %136, align 4, !tbaa !120
  %138 = call i32 (ptr, ...) @printf(ptr noundef @.str.12, ptr noundef %134, i32 noundef %137)
  br label %139

139:                                              ; preds = %132, %128
  br label %140

140:                                              ; preds = %139
  %141 = load i32, ptr %5, align 4, !tbaa !10
  %142 = add nsw i32 %141, 1
  store i32 %142, ptr %5, align 4, !tbaa !10
  br label %109, !llvm.loop !124

143:                                              ; preds = %126
  %144 = call i32 (ptr, ...) @printf(ptr noundef @.str.13)
  store i32 0, ptr %5, align 4, !tbaa !10
  br label %145

145:                                              ; preds = %167, %143
  %146 = load i32, ptr %5, align 4, !tbaa !10
  %147 = load ptr, ptr %2, align 8, !tbaa !12
  %148 = getelementptr inbounds nuw %struct.Ver_Man_t_, ptr %147, i32 0, i32 7
  %149 = load ptr, ptr %148, align 8, !tbaa !24
  %150 = getelementptr inbounds nuw %struct.Abc_Des_t_, ptr %149, i32 0, i32 3
  %151 = load ptr, ptr %150, align 8, !tbaa !38
  %152 = call i32 @Vec_PtrSize(ptr noundef %151)
  %153 = icmp slt i32 %146, %152
  br i1 %153, label %154, label %162

154:                                              ; preds = %145
  %155 = load ptr, ptr %2, align 8, !tbaa !12
  %156 = getelementptr inbounds nuw %struct.Ver_Man_t_, ptr %155, i32 0, i32 7
  %157 = load ptr, ptr %156, align 8, !tbaa !24
  %158 = getelementptr inbounds nuw %struct.Abc_Des_t_, ptr %157, i32 0, i32 3
  %159 = load ptr, ptr %158, align 8, !tbaa !38
  %160 = load i32, ptr %5, align 4, !tbaa !10
  %161 = call ptr @Vec_PtrEntry(ptr noundef %159, i32 noundef %160)
  store ptr %161, ptr %3, align 8, !tbaa !39
  br label %162

162:                                              ; preds = %154, %145
  %163 = phi i1 [ false, %145 ], [ true, %154 ]
  br i1 %163, label %164, label %170

164:                                              ; preds = %162
  %165 = load ptr, ptr %3, align 8, !tbaa !39
  %166 = getelementptr inbounds nuw %struct.Abc_Ntk_t_, ptr %165, i32 0, i32 23
  store i32 0, ptr %166, align 4, !tbaa !120
  br label %167

167:                                              ; preds = %164
  %168 = load i32, ptr %5, align 4, !tbaa !10
  %169 = add nsw i32 %168, 1
  store i32 %169, ptr %5, align 4, !tbaa !10
  br label %145, !llvm.loop !125

170:                                              ; preds = %162
  call void @llvm.lifetime.end.p0(i64 4, ptr %7) #10
  call void @llvm.lifetime.end.p0(i64 4, ptr %6) #10
  call void @llvm.lifetime.end.p0(i64 4, ptr %5) #10
  call void @llvm.lifetime.end.p0(i64 8, ptr %4) #10
  call void @llvm.lifetime.end.p0(i64 8, ptr %3) #10
  ret void
}