; Function Attrs: nofree nounwind uwtable
define void @Ver_ParseReportUndefBoxes(ptr noundef readonly captures(none) %0) local_unnamed_addr #8 {
  %2 = getelementptr inbounds nuw i8, ptr %0, i64 48
  %3 = load ptr, ptr %2, align 8, !tbaa !33
  %4 = getelementptr inbounds nuw i8, ptr %3, i64 24
  %5 = load ptr, ptr %4, align 8, !tbaa !88
  %6 = getelementptr i8, ptr %5, i64 4
  %.val55 = load i32, ptr %6, align 4, !tbaa !20
  %7 = icmp sgt i32 %.val55, 0
  br i1 %7, label %.lr.ph, label %.critedge2

.lr.ph:                                           ; preds = %1
  %8 = getelementptr i8, ptr %5, i64 8
  %.val59 = load ptr, ptr %8, align 8, !tbaa !23
  %wide.trip.count = zext nneg i32 %.val55 to i64
  br label %10

.lr.ph90:                                         ; preds = %Ver_NtkIsDefined.exit.thread
  %9 = getelementptr i8, ptr %5, i64 8
  %.val58 = load ptr, ptr %9, align 8, !tbaa !23
  %wide.trip.count105 = zext nneg i32 %.val55 to i64
  br label %20

10:                                               ; preds = %.lr.ph, %Ver_NtkIsDefined.exit.thread
  %indvars.iv = phi i64 [ 0, %.lr.ph ], [ %indvars.iv.next, %Ver_NtkIsDefined.exit.thread ]
  %.084 = phi i32 [ 0, %.lr.ph ], [ %19, %Ver_NtkIsDefined.exit.thread ]
  %11 = getelementptr inbounds nuw ptr, ptr %.val59, i64 %indvars.iv
  %12 = load ptr, ptr %11, align 8, !tbaa !63
  %13 = getelementptr inbounds nuw i8, ptr %12, i64 196
  store i32 0, ptr %13, align 4, !tbaa !128
  %14 = getelementptr i8, ptr %12, i64 40
  %.val.i = load ptr, ptr %14, align 8, !tbaa !61
  %15 = getelementptr i8, ptr %.val.i, i64 4
  %.val.val.i = load i32, ptr %15, align 4, !tbaa !20
  %.not.i = icmp eq i32 %.val.val.i, 0
  br i1 %.not.i, label %Ver_NtkIsDefined.exit, label %Ver_NtkIsDefined.exit.thread

Ver_NtkIsDefined.exit:                            ; preds = %10
  %16 = getelementptr i8, ptr %12, i64 48
  %.val2.i = load ptr, ptr %16, align 8, !tbaa !62
  %17 = getelementptr i8, ptr %.val2.i, i64 4
  %.val2.val.i = load i32, ptr %17, align 4, !tbaa !20
  %.val2.val.i.fr = freeze i32 %.val2.val.i
  %.not81 = icmp eq i32 %.val2.val.i.fr, 0
  %18 = zext i1 %.not81 to i32
  %spec.select = add nsw i32 %.084, %18
  br label %Ver_NtkIsDefined.exit.thread

Ver_NtkIsDefined.exit.thread:                     ; preds = %Ver_NtkIsDefined.exit, %10
  %19 = phi i32 [ %.084, %10 ], [ %spec.select, %Ver_NtkIsDefined.exit ]
  %indvars.iv.next = add nuw nsw i64 %indvars.iv, 1
  %exitcond.not = icmp eq i64 %indvars.iv.next, %wide.trip.count
  br i1 %exitcond.not, label %.lr.ph90, label %10, !llvm.loop !129

20:                                               ; preds = %.lr.ph90, %.critedge4
  %indvars.iv102 = phi i64 [ 0, %.lr.ph90 ], [ %indvars.iv.next103, %.critedge4 ]
  %21 = getelementptr inbounds nuw ptr, ptr %.val58, i64 %indvars.iv102
  %22 = load ptr, ptr %21, align 8, !tbaa !63
  %23 = getelementptr inbounds nuw i8, ptr %22, i64 80
  %24 = load ptr, ptr %23, align 8, !tbaa !60
  %25 = getelementptr i8, ptr %24, i64 4
  %.val53 = load i32, ptr %25, align 4, !tbaa !20
  %26 = icmp sgt i32 %.val53, 0
  br i1 %26, label %.lr.ph88, label %.critedge4

.lr.ph88:                                         ; preds = %20
  %27 = getelementptr i8, ptr %24, i64 8
  %.val60.val = load ptr, ptr %27, align 8, !tbaa !23
  %wide.trip.count100 = zext nneg i32 %.val53 to i64
  br label %28

28:                                               ; preds = %.lr.ph88, %Ver_NtkIsDefined.exit68.thread
  %indvars.iv97 = phi i64 [ 0, %.lr.ph88 ], [ %indvars.iv.next98, %Ver_NtkIsDefined.exit68.thread ]
  %29 = getelementptr inbounds nuw ptr, ptr %.val60.val, i64 %indvars.iv97
  %30 = load ptr, ptr %29, align 8, !tbaa !63
  %31 = getelementptr i8, ptr %30, i64 20
  %.val61 = load i32, ptr %31, align 4
  %32 = and i32 %.val61, 15
  %.not = icmp eq i32 %32, 10
  br i1 %.not, label %33, label %Ver_NtkIsDefined.exit68.thread

33:                                               ; preds = %28
  %34 = getelementptr inbounds nuw i8, ptr %30, i64 56
  %35 = load ptr, ptr %34, align 8, !tbaa !73
  %.not49 = icmp eq ptr %35, null
  br i1 %.not49, label %Ver_NtkIsDefined.exit68.thread, label %36

36:                                               ; preds = %33
  %37 = getelementptr i8, ptr %35, i64 40
  %.val.i63 = load ptr, ptr %37, align 8, !tbaa !61
  %38 = getelementptr i8, ptr %.val.i63, i64 4
  %.val.val.i64 = load i32, ptr %38, align 4, !tbaa !20
  %.not.i65 = icmp eq i32 %.val.val.i64, 0
  br i1 %.not.i65, label %Ver_NtkIsDefined.exit68, label %Ver_NtkIsDefined.exit68.thread

Ver_NtkIsDefined.exit68:                          ; preds = %36
  %39 = getelementptr i8, ptr %35, i64 48
  %.val2.i66 = load ptr, ptr %39, align 8, !tbaa !62
  %40 = getelementptr i8, ptr %.val2.i66, i64 4
  %.val2.val.i67 = load i32, ptr %40, align 4, !tbaa !20
  %.not80 = icmp eq i32 %.val2.val.i67, 0
  br i1 %.not80, label %41, label %Ver_NtkIsDefined.exit68.thread

41:                                               ; preds = %Ver_NtkIsDefined.exit68
  %42 = getelementptr inbounds nuw i8, ptr %35, i64 196
  %43 = load i32, ptr %42, align 4, !tbaa !128
  %44 = add nsw i32 %43, 1
  store i32 %44, ptr %42, align 4, !tbaa !128
  br label %Ver_NtkIsDefined.exit68.thread

Ver_NtkIsDefined.exit68.thread:                   ; preds = %36, %28, %41, %Ver_NtkIsDefined.exit68, %33
  %indvars.iv.next98 = add nuw nsw i64 %indvars.iv97, 1
  %exitcond101.not = icmp eq i64 %indvars.iv.next98, %wide.trip.count100
  br i1 %exitcond101.not, label %.critedge4, label %28, !llvm.loop !130

.critedge4:                                       ; preds = %Ver_NtkIsDefined.exit68.thread, %20
  %indvars.iv.next103 = add nuw nsw i64 %indvars.iv102, 1
  %exitcond106.not = icmp eq i64 %indvars.iv.next103, %wide.trip.count105
  br i1 %exitcond106.not, label %.critedge2, label %20, !llvm.loop !131

.critedge2:                                       ; preds = %.critedge4, %1
  %.0.lcssa116 = phi i32 [ 0, %1 ], [ %19, %.critedge4 ]
  %45 = tail call i32 (ptr, ...) @printf(ptr noundef nonnull dereferenceable(1) @.str.11, i32 noundef %.0.lcssa116)
  %46 = load ptr, ptr %2, align 8, !tbaa !33
  %47 = getelementptr inbounds nuw i8, ptr %46, i64 24
  %48 = load ptr, ptr %47, align 8, !tbaa !88
  %49 = getelementptr i8, ptr %48, i64 4
  %.val5291 = load i32, ptr %49, align 4, !tbaa !20
  %50 = icmp sgt i32 %.val5291, 0
  br i1 %50, label %.lr.ph93, label %.critedge6

.lr.ph93:                                         ; preds = %.critedge2, %Ver_NtkIsDefined.exit74.thread
  %51 = phi ptr [ %65, %Ver_NtkIsDefined.exit74.thread ], [ %46, %.critedge2 ]
  %indvars.iv107 = phi i64 [ %indvars.iv.next108, %Ver_NtkIsDefined.exit74.thread ], [ 0, %.critedge2 ]
  %52 = phi ptr [ %67, %Ver_NtkIsDefined.exit74.thread ], [ %48, %.critedge2 ]
  %53 = getelementptr i8, ptr %52, i64 8
  %.val57 = load ptr, ptr %53, align 8, !tbaa !23
  %54 = getelementptr inbounds nuw ptr, ptr %.val57, i64 %indvars.iv107
  %55 = load ptr, ptr %54, align 8, !tbaa !63
  %56 = getelementptr i8, ptr %55, i64 40
  %.val.i69 = load ptr, ptr %56, align 8, !tbaa !61
  %57 = getelementptr i8, ptr %.val.i69, i64 4
  %.val.val.i70 = load i32, ptr %57, align 4, !tbaa !20
  %.not.i71 = icmp eq i32 %.val.val.i70, 0
  br i1 %.not.i71, label %Ver_NtkIsDefined.exit74, label %Ver_NtkIsDefined.exit74.thread

Ver_NtkIsDefined.exit74:                          ; preds = %.lr.ph93
  %58 = getelementptr i8, ptr %55, i64 48
  %.val2.i72 = load ptr, ptr %58, align 8, !tbaa !62
  %59 = getelementptr i8, ptr %.val2.i72, i64 4
  %.val2.val.i73 = load i32, ptr %59, align 4, !tbaa !20
  %.not79 = icmp eq i32 %.val2.val.i73, 0
  br i1 %.not79, label %60, label %Ver_NtkIsDefined.exit74.thread

60:                                               ; preds = %Ver_NtkIsDefined.exit74
  %61 = getelementptr i8, ptr %55, i64 8
  %.val62 = load ptr, ptr %61, align 8, !tbaa !45
  %62 = getelementptr inbounds nuw i8, ptr %55, i64 196
  %63 = load i32, ptr %62, align 4, !tbaa !128
  %64 = tail call i32 (ptr, ...) @printf(ptr noundef nonnull dereferenceable(1) @.str.12, ptr noundef %.val62, i32 noundef %63)
  %.pre = load ptr, ptr %2, align 8, !tbaa !33
  br label %Ver_NtkIsDefined.exit74.thread

Ver_NtkIsDefined.exit74.thread:                   ; preds = %.lr.ph93, %Ver_NtkIsDefined.exit74, %60
  %65 = phi ptr [ %51, %.lr.ph93 ], [ %51, %Ver_NtkIsDefined.exit74 ], [ %.pre, %60 ]
  %indvars.iv.next108 = add nuw nsw i64 %indvars.iv107, 1
  %66 = getelementptr inbounds nuw i8, ptr %65, i64 24
  %67 = load ptr, ptr %66, align 8, !tbaa !88
  %68 = getelementptr i8, ptr %67, i64 4
  %.val52 = load i32, ptr %68, align 4, !tbaa !20
  %69 = sext i32 %.val52 to i64
  %70 = icmp slt i64 %indvars.iv.next108, %69
  br i1 %70, label %.lr.ph93, label %.critedge6, !llvm.loop !132

.critedge6:                                       ; preds = %Ver_NtkIsDefined.exit74.thread, %.critedge2
  %putchar = tail call i32 @putchar(i32 10)
  %71 = load ptr, ptr %2, align 8, !tbaa !33
  %72 = getelementptr inbounds nuw i8, ptr %71, i64 24
  %73 = load ptr, ptr %72, align 8, !tbaa !88
  %74 = getelementptr i8, ptr %73, i64 4
  %.val = load i32, ptr %74, align 4, !tbaa !20
  %75 = icmp sgt i32 %.val, 0
  br i1 %75, label %.lr.ph95, label %.critedge8

.lr.ph95:                                         ; preds = %.critedge6
  %76 = getelementptr i8, ptr %73, i64 8
  %.val56 = load ptr, ptr %76, align 8, !tbaa !23
  %wide.trip.count113 = zext nneg i32 %.val to i64
  br label %77

77:                                               ; preds = %.lr.ph95, %77
  %indvars.iv110 = phi i64 [ 0, %.lr.ph95 ], [ %indvars.iv.next111, %77 ]
  %78 = getelementptr inbounds nuw ptr, ptr %.val56, i64 %indvars.iv110
  %79 = load ptr, ptr %78, align 8, !tbaa !63
  %80 = getelementptr inbounds nuw i8, ptr %79, i64 196
  store i32 0, ptr %80, align 4, !tbaa !128
  %indvars.iv.next111 = add nuw nsw i64 %indvars.iv110, 1
  %exitcond114.not = icmp eq i64 %indvars.iv.next111, %wide.trip.count113
  br i1 %exitcond114.not, label %.critedge8, label %77, !llvm.loop !133

.critedge8:                                       ; preds = %77, %.critedge6
  ret void
}